#include <math.h>
#include <stdio.h>
#include <stdlib.h>
#include <string.h>

int main()
{
	int n,i,j,len;
	char str[1000][1000];
	scanf("%d",&n);
	for(i=0;i<n;i++){
		scanf("%s",str[i]);
		len=strlen(str[i]);
		for(j=0;j<len;j++){
			if(str[i][j]=='A')
			{
				str[i][j]='T';
			}
			else if(str[i][j]=='T')
			{
				str[i][j]='A';
			}
			else if(str[i][j]=='G')
			{
				str[i][j]='C';
			}
			else if(str[i][j]=='C')
			{
				str[i][j]='G';
			}
			else
			{
				str[i][j]=str[i][j];
			}
		}
	}
	for(i=0;i<n;i++){
		printf("%s\n",str[i]);
		
		}
	return 0;
}


	


	